; Function Attrs: mustprogress nounwind uwtable
define dso_local void @_ZN4llvm12MCAsmInfoELFC2Ev(ptr noundef nonnull align 8 dereferenceable(484) %0) unnamed_addr #1 align 2 {
  tail call void @_ZN4llvm9MCAsmInfoC2Ev(ptr noundef nonnull align 8 dereferenceable(484) %0) #6
  store ptr getelementptr inbounds inrange(-16, 104) (i8, ptr @_ZTVN4llvm12MCAsmInfoELFE, i64 16), ptr %0, align 8
  %2 = getelementptr inbounds nuw i8, ptr %0, i64 366
  store i8 1, ptr %2, align 2
  %3 = getelementptr inbounds nuw i8, ptr %0, i64 376
  store ptr @.str.1, ptr %3, align 8
  %4 = getelementptr inbounds nuw i8, ptr %0, i64 88
  store ptr @.str.2, ptr %4, align 8
  %.sroa.22.0..sroa_idx = getelementptr inbounds i8, ptr %0, i64 96
  store i64 2, ptr %.sroa.22.0..sroa_idx, align 8
  %5 = getelementptr inbounds nuw i8, ptr %0, i64 104
  store ptr @.str.2, ptr %5, align 8
  %.sroa.2.0..sroa_idx = getelementptr inbounds i8, ptr %0, i64 112
  store i64 2, ptr %.sroa.2.0..sroa_idx, align 8
  ret void
}